; Function Attrs: null_pointer_is_valid sspstrong uwtable
define i32 @dissect_h225_RasMessage(ptr noundef %0, i32 noundef %1, ptr noundef %2, ptr noundef %3, i32 noundef %4) local_unnamed_addr #0 {
  %6 = alloca i32, align 4
  call void @llvm.lifetime.start.p0(i64 4, ptr nonnull %6) #11
  store ptr null, ptr @call_id_guid, align 8
  %7 = load i32, ptr @ett_h225_RasMessage, align 4
  %8 = call i32 @dissect_per_choice(ptr noundef %0, i32 noundef %1, ptr noundef %2, ptr noundef %3, i32 noundef %4, i32 noundef %7, ptr noundef nonnull @RasMessage_choice, ptr noundef nonnull %6)
  %9 = getelementptr inbounds nuw i8, ptr %2, i64 16
  %10 = load ptr, ptr %9, align 8
  %11 = getelementptr inbounds nuw i8, ptr %10, i64 8
  %12 = load ptr, ptr %11, align 8
  %13 = load i32, ptr %6, align 4
  %14 = call ptr @val_to_str_const(i32 noundef %13, ptr noundef nonnull @h225_RasMessage_vals, ptr noundef nonnull @.str.193)
  call void (ptr, i32, ptr, ...) @col_add_fstr(ptr noundef %12, i32 noundef 25, ptr noundef nonnull @.str.192, ptr noundef %14)
  %15 = load ptr, ptr %9, align 8
  %16 = getelementptr inbounds nuw i8, ptr %15, i64 408
  %17 = load ptr, ptr %16, align 8
  %18 = load i32, ptr @proto_h225, align 4
  %19 = call ptr @p_get_proto_data(ptr noundef %17, ptr noundef %15, i32 noundef %18, i32 noundef 0)
  %.not = icmp eq ptr %19, null
  br i1 %.not, label %26, label %20

20:                                               ; preds = %5
  %21 = load i32, ptr %6, align 4
  %22 = getelementptr inbounds nuw i8, ptr %19, i64 8
  store i32 %21, ptr %22, align 8
  %23 = load ptr, ptr @call_id_guid, align 8
  %.not12 = icmp eq ptr %23, null
  br i1 %.not12, label %26, label %24

24:                                               ; preds = %20
  %25 = getelementptr inbounds nuw i8, ptr %19, i64 20
  call void @llvm.memcpy.p0.p0.i64(ptr noundef nonnull align 4 dereferenceable(16) %25, ptr noundef nonnull align 4 dereferenceable(16) %23, i64 16, i1 false)
  br label %26

26:                                               ; preds = %20, %24, %5
  call void @llvm.lifetime.end.p0(i64 4, ptr nonnull %6) #11
  ret i32 %8
}